target datalayout = "e-m:e-p270:32:32-p271:32:32-p272:64:64-i64:64-i128:128-f80:128-n8:16:32:64-S128"
target triple = "x86_64-pc-linux-gnu"

%struct.AVBSFContext = type { ptr, ptr, ptr, ptr, ptr, %struct.AVRational, %struct.AVRational }
%struct.AVRational = type { i32, i32 }
%struct.FFBSFContext = type { %struct.AVBSFContext, ptr, i32 }
%struct.AVPacket = type { ptr, i64, i64, ptr, i32, i32, i32, ptr, i32, i64, i64, ptr, ptr, %struct.AVRational }

@.str.4 = private unnamed_addr constant [38 x i8] c"A non-NULL packet sent after an EOF.\0A\00", align 1

; Function Attrs: alwaysinline nounwind uwtable
define internal ptr @ffbsfcontext(ptr noundef %0) #2 {
  %2 = alloca ptr, align 8
  store ptr %0, ptr %2, align 8, !tbaa !10
  %3 = load ptr, ptr %2, align 8, !tbaa !10
  ret ptr %3
}

; Function Attrs: nounwind uwtable
define i32 @av_bsf_send_packet(ptr noundef %0, ptr noundef %1) #0 {
  %3 = alloca i32, align 4
  %4 = alloca ptr, align 8
  %5 = alloca ptr, align 8
  %6 = alloca ptr, align 8
  %7 = alloca i32, align 4
  %8 = alloca i32, align 4
  store ptr %0, ptr %4, align 8, !tbaa !10
  store ptr %1, ptr %5, align 8, !tbaa !57
  call void @llvm.lifetime.start.p0(i64 8, ptr %6) #6
  %9 = load ptr, ptr %4, align 8, !tbaa !10
  %10 = call ptr @ffbsfcontext(ptr noundef %9)
  store ptr %10, ptr %6, align 8, !tbaa !12
  call void @llvm.lifetime.start.p0(i64 4, ptr %7) #6
  %11 = load ptr, ptr %5, align 8, !tbaa !57
  %12 = icmp ne ptr %11, null
  br i1 %12, label %13, label %23

13:                                               ; preds = %2
  %14 = load ptr, ptr %5, align 8, !tbaa !57
  %15 = getelementptr inbounds nuw %struct.AVPacket, ptr %14, i32 0, i32 3
  %16 = load ptr, ptr %15, align 8, !tbaa !58
  %17 = icmp ne ptr %16, null
  br i1 %17, label %31, label %18

18:                                               ; preds = %13
  %19 = load ptr, ptr %5, align 8, !tbaa !57
  %20 = getelementptr inbounds nuw %struct.AVPacket, ptr %19, i32 0, i32 8
  %21 = load i32, ptr %20, align 8, !tbaa !61
  %22 = icmp ne i32 %21, 0
  br i1 %22, label %31, label %23

23:                                               ; preds = %18, %2
  %24 = load ptr, ptr %5, align 8, !tbaa !57
  %25 = icmp ne ptr %24, null
  br i1 %25, label %26, label %28

26:                                               ; preds = %23
  %27 = load ptr, ptr %5, align 8, !tbaa !57
  call void @av_packet_unref(ptr noundef %27)
  br label %28

28:                                               ; preds = %26, %23
  %29 = load ptr, ptr %6, align 8, !tbaa !12
  %30 = getelementptr inbounds nuw %struct.FFBSFContext, ptr %29, i32 0, i32 2
  store i32 1, ptr %30, align 8, !tbaa !55
  store i32 0, ptr %3, align 4
  store i32 1, ptr %8, align 4
  br label %65

31:                                               ; preds = %18, %13
  %32 = load ptr, ptr %6, align 8, !tbaa !12
  %33 = getelementptr inbounds nuw %struct.FFBSFContext, ptr %32, i32 0, i32 2
  %34 = load i32, ptr %33, align 8, !tbaa !55
  %35 = icmp ne i32 %34, 0
  br i1 %35, label %36, label %38

36:                                               ; preds = %31
  %37 = load ptr, ptr %4, align 8, !tbaa !10
  call void (ptr, i32, ptr, ...) @av_log(ptr noundef %37, i32 noundef 16, ptr noundef @.str.4)
  store i32 -22, ptr %3, align 4
  store i32 1, ptr %8, align 4
  br label %65

38:                                               ; preds = %31
  %39 = load ptr, ptr %6, align 8, !tbaa !12
  %40 = getelementptr inbounds nuw %struct.FFBSFContext, ptr %39, i32 0, i32 1
  %41 = load ptr, ptr %40, align 8, !tbaa !34
  %42 = getelementptr inbounds nuw %struct.AVPacket, ptr %41, i32 0, i32 3
  %43 = load ptr, ptr %42, align 8, !tbaa !58
  %44 = icmp ne ptr %43, null
  br i1 %44, label %52, label %45

45:                                               ; preds = %38
  %46 = load ptr, ptr %6, align 8, !tbaa !12
  %47 = getelementptr inbounds nuw %struct.FFBSFContext, ptr %46, i32 0, i32 1
  %48 = load ptr, ptr %47, align 8, !tbaa !34
  %49 = getelementptr inbounds nuw %struct.AVPacket, ptr %48, i32 0, i32 8
  %50 = load i32, ptr %49, align 8, !tbaa !61
  %51 = icmp ne i32 %50, 0
  br i1 %51, label %52, label %53

52:                                               ; preds = %45, %38
  store i32 -11, ptr %3, align 4
  store i32 1, ptr %8, align 4
  br label %65

53:                                               ; preds = %45
  %54 = load ptr, ptr %5, align 8, !tbaa !57
  %55 = call i32 @av_packet_make_refcounted(ptr noundef %54)
  store i32 %55, ptr %7, align 4, !tbaa !31
  %56 = load i32, ptr %7, align 4, !tbaa !31
  %57 = icmp slt i32 %56, 0
  br i1 %57, label %58, label %60

58:                                               ; preds = %53
  %59 = load i32, ptr %7, align 4, !tbaa !31
  store i32 %59, ptr %3, align 4
  store i32 1, ptr %8, align 4
  br label %65

60:                                               ; preds = %53
  %61 = load ptr, ptr %6, align 8, !tbaa !12
  %62 = getelementptr inbounds nuw %struct.FFBSFContext, ptr %61, i32 0, i32 1
  %63 = load ptr, ptr %62, align 8, !tbaa !34
  %64 = load ptr, ptr %5, align 8, !tbaa !57
  call void @av_packet_move_ref(ptr noundef %63, ptr noundef %64)
  store i32 0, ptr %3, align 4
  store i32 1, ptr %8, align 4
  br label %65

65:                                               ; preds = %60, %58, %52, %36, %28
  call void @llvm.lifetime.end.p0(i64 4, ptr %7) #6
  call void @llvm.lifetime.end.p0(i64 8, ptr %6) #6
  %66 = load i32, ptr %3, align 4
  ret i32 %66
}