; Function Attrs: nounwind uwtable
define range(i32 -2147483648, 1) i32 @av_bsf_send_packet(ptr noundef %0, ptr noundef %1) local_unnamed_addr #0 {
  %.not = icmp eq ptr %1, null
  br i1 %.not, label %.critedge, label %3

3:                                                ; preds = %2
  %4 = getelementptr inbounds nuw i8, ptr %1, i64 24
  %5 = load ptr, ptr %4, align 8, !tbaa !49
  %.not18 = icmp eq ptr %5, null
  br i1 %.not18, label %6, label %11

6:                                                ; preds = %3
  %7 = getelementptr inbounds nuw i8, ptr %1, i64 56
  %8 = load i32, ptr %7, align 8, !tbaa !52
  %.not19 = icmp eq i32 %8, 0
  br i1 %.not19, label %9, label %11

9:                                                ; preds = %6
  tail call void @av_packet_unref(ptr noundef nonnull %1) #6
  br label %.critedge

.critedge:                                        ; preds = %2, %9
  %10 = getelementptr inbounds nuw i8, ptr %0, i64 64
  store i32 1, ptr %10, align 8, !tbaa !47
  br label %28

11:                                               ; preds = %6, %3
  %12 = getelementptr inbounds nuw i8, ptr %0, i64 64
  %13 = load i32, ptr %12, align 8, !tbaa !47
  %.not20 = icmp eq i32 %13, 0
  br i1 %.not20, label %15, label %14

14:                                               ; preds = %11
  tail call void (ptr, i32, ptr, ...) @av_log(ptr noundef nonnull %0, i32 noundef 16, ptr noundef nonnull @.str.4) #6
  br label %28

15:                                               ; preds = %11
  %16 = getelementptr inbounds nuw i8, ptr %0, i64 56
  %17 = load ptr, ptr %16, align 8, !tbaa !27
  %18 = getelementptr inbounds nuw i8, ptr %17, i64 24
  %19 = load ptr, ptr %18, align 8, !tbaa !49
  %.not21 = icmp eq ptr %19, null
  br i1 %.not21, label %20, label %28

20:                                               ; preds = %15
  %21 = getelementptr inbounds nuw i8, ptr %17, i64 56
  %22 = load i32, ptr %21, align 8, !tbaa !52
  %.not22 = icmp eq i32 %22, 0
  br i1 %.not22, label %23, label %28

23:                                               ; preds = %20
  %24 = tail call i32 @av_packet_make_refcounted(ptr noundef nonnull %1) #6
  %25 = icmp slt i32 %24, 0
  br i1 %25, label %28, label %26

26:                                               ; preds = %23
  %27 = load ptr, ptr %16, align 8, !tbaa !27
  tail call void @av_packet_move_ref(ptr noundef %27, ptr noundef nonnull %1) #6
  br label %28

28:                                               ; preds = %23, %15, %20, %26, %14, %.critedge
  %.0 = phi i32 [ -22, %14 ], [ 0, %26 ], [ 0, %.critedge ], [ -11, %20 ], [ -11, %15 ], [ %24, %23 ]
  ret i32 %.0
}